; Function Attrs: mustprogress uwtable
define hidden noundef zeroext i1 @_ZN4cvc58internal6theory24CarePairArgumentCallback12considerPathENS0_12NodeTemplateILb0EEES4_(ptr nocapture noundef nonnull readonly align 8 dereferenceable(16) %this, ptr noundef %a, ptr noundef %b) unnamed_addr #4 align 2 personality ptr @__gxx_personality_v0 {
entry:
  %agg.tmp = alloca %"class.cvc5::internal::NodeTemplate", align 8
  %agg.tmp6 = alloca %"class.cvc5::internal::NodeTemplate", align 8
  %0 = load ptr, ptr %a, align 8
  %1 = load ptr, ptr %b, align 8
  %cmp.i = icmp eq ptr %0, %1
  br i1 %cmp.i, label %return, label %if.end

if.end:                                           ; preds = %entry
  %call2 = tail call noundef zeroext i1 @_ZNK4cvc58internal12NodeTemplateILb0EE7isConstEv(ptr noundef nonnull align 8 dereferenceable(8) %a)
  br i1 %call2, label %land.lhs.true, label %if.end5

land.lhs.true:                                    ; preds = %if.end
  %call3 = tail call noundef zeroext i1 @_ZNK4cvc58internal12NodeTemplateILb0EE7isConstEv(ptr noundef nonnull align 8 dereferenceable(8) %b)
  br i1 %call3, label %return, label %if.end5

if.end5:                                          ; preds = %land.lhs.true, %if.end
  %d_theory = getelementptr inbounds i8, ptr %this, i64 8
  %2 = load ptr, ptr %d_theory, align 8
  %3 = load ptr, ptr %a, align 8
  store ptr %3, ptr %agg.tmp, align 8
  %4 = load ptr, ptr %b, align 8
  store ptr %4, ptr %agg.tmp6, align 8
  %vtable = load ptr, ptr %2, align 8
  %vfn = getelementptr inbounds i8, ptr %vtable, i64 24
  %5 = load ptr, ptr %vfn, align 8
  %call9 = call noundef zeroext i1 %5(ptr noundef nonnull align 8 dereferenceable(408) %2, ptr noundef nonnull %agg.tmp, ptr noundef nonnull %agg.tmp6)
  %lnot = xor i1 %call9, true
  br label %return

return:                                           ; preds = %land.lhs.true, %entry, %if.end5
  %retval.0 = phi i1 [ %lnot, %if.end5 ], [ true, %entry ], [ false, %land.lhs.true ]
  ret i1 %retval.0
}